target datalayout = "e-m:e-p270:32:32-p271:32:32-p272:64:64-i64:64-i128:128-f80:128-n8:16:32:64-S128"
target triple = "x86_64-pc-linux-gnu"

%"class.icu_77::IteratedChar" = type <{ i32, i32, i32, i8, i8, [2 x i8] }>
%"class.icu_77::InputText" = type <{ ptr, i32, [4 x i8], ptr, i8, [7 x i8], ptr, ptr, i32, [4 x i8] }>

; Function Attrs: mustprogress nounwind uwtable
define noundef i32 @_ZN6icu_7712IteratedChar8nextByteEPNS_9InputTextE(ptr noundef nonnull align 4 dereferenceable(14) %0, ptr noundef %1) #0 align 2 {
  %3 = alloca i32, align 4
  %4 = alloca ptr, align 8
  %5 = alloca ptr, align 8
  store ptr %0, ptr %4, align 8, !tbaa !3
  store ptr %1, ptr %5, align 8, !tbaa !15
  %6 = load ptr, ptr %4, align 8
  %7 = getelementptr inbounds nuw %"class.icu_77::IteratedChar", ptr %6, i32 0, i32 2
  %8 = load i32, ptr %7, align 4, !tbaa !12
  %9 = load ptr, ptr %5, align 8, !tbaa !15
  %10 = getelementptr inbounds nuw %"class.icu_77::InputText", ptr %9, i32 0, i32 8
  %11 = load i32, ptr %10, align 8, !tbaa !17
  %12 = icmp sge i32 %8, %11
  br i1 %12, label %13, label %15

13:                                               ; preds = %2
  %14 = getelementptr inbounds nuw %"class.icu_77::IteratedChar", ptr %6, i32 0, i32 4
  store i8 1, ptr %14, align 1, !tbaa !14
  store i32 -1, ptr %3, align 4
  br label %26

15:                                               ; preds = %2
  %16 = load ptr, ptr %5, align 8, !tbaa !15
  %17 = getelementptr inbounds nuw %"class.icu_77::InputText", ptr %16, i32 0, i32 7
  %18 = load ptr, ptr %17, align 8, !tbaa !21
  %19 = getelementptr inbounds nuw %"class.icu_77::IteratedChar", ptr %6, i32 0, i32 2
  %20 = load i32, ptr %19, align 4, !tbaa !12
  %21 = add nsw i32 %20, 1
  store i32 %21, ptr %19, align 4, !tbaa !12
  %22 = sext i32 %20 to i64
  %23 = getelementptr inbounds i8, ptr %18, i64 %22
  %24 = load i8, ptr %23, align 1, !tbaa !22
  %25 = zext i8 %24 to i32
  store i32 %25, ptr %3, align 4
  br label %26

26:                                               ; preds = %15, %13
  %27 = load i32, ptr %3, align 4
  ret i32 %27
}

; Function Attrs: mustprogress nounwind uwtable
define noundef signext i8 @_ZNK6icu_7717CharsetRecog_big58nextCharEPNS_12IteratedCharEPNS_9InputTextE(ptr noundef nonnull align 8 dereferenceable(8) %0, ptr noundef %1, ptr noundef %2) unnamed_addr #0 align 2 {
  %4 = alloca i8, align 1
  %5 = alloca ptr, align 8
  %6 = alloca ptr, align 8
  %7 = alloca ptr, align 8
  %8 = alloca i32, align 4
  %9 = alloca i32, align 4
  %10 = alloca i32, align 4
  store ptr %0, ptr %5, align 8, !tbaa !46
  store ptr %1, ptr %6, align 8, !tbaa !3
  store ptr %2, ptr %7, align 8, !tbaa !15
  call void @llvm.lifetime.start.p0(i64 4, ptr %8) #7
  %11 = load ptr, ptr %6, align 8, !tbaa !3
  %12 = getelementptr inbounds nuw %"class.icu_77::IteratedChar", ptr %11, i32 0, i32 2
  %13 = load i32, ptr %12, align 4, !tbaa !12
  %14 = load ptr, ptr %6, align 8, !tbaa !3
  %15 = getelementptr inbounds nuw %"class.icu_77::IteratedChar", ptr %14, i32 0, i32 1
  store i32 %13, ptr %15, align 4, !tbaa !11
  %16 = load ptr, ptr %6, align 8, !tbaa !3
  %17 = getelementptr inbounds nuw %"class.icu_77::IteratedChar", ptr %16, i32 0, i32 3
  store i8 0, ptr %17, align 4, !tbaa !13
  %18 = load ptr, ptr %6, align 8, !tbaa !3
  %19 = load ptr, ptr %7, align 8, !tbaa !15
  %20 = call noundef i32 @_ZN6icu_7712IteratedChar8nextByteEPNS_9InputTextE(ptr noundef nonnull align 4 dereferenceable(14) %18, ptr noundef %19)
  %21 = load ptr, ptr %6, align 8, !tbaa !3
  %22 = getelementptr inbounds nuw %"class.icu_77::IteratedChar", ptr %21, i32 0, i32 0
  store i32 %20, ptr %22, align 4, !tbaa !8
  store i32 %20, ptr %8, align 4, !tbaa !26
  %23 = load i32, ptr %8, align 4, !tbaa !26
  %24 = icmp slt i32 %23, 0
  br i1 %24, label %25, label %26

25:                                               ; preds = %3
  store i8 0, ptr %4, align 1
  store i32 1, ptr %9, align 4
  br label %61

26:                                               ; preds = %3
  %27 = load i32, ptr %8, align 4, !tbaa !26
  %28 = icmp sle i32 %27, 127
  br i1 %28, label %32, label %29

29:                                               ; preds = %26
  %30 = load i32, ptr %8, align 4, !tbaa !26
  %31 = icmp eq i32 %30, 255
  br i1 %31, label %32, label %33

32:                                               ; preds = %29, %26
  store i8 1, ptr %4, align 1
  store i32 1, ptr %9, align 4
  br label %61

33:                                               ; preds = %29
  call void @llvm.lifetime.start.p0(i64 4, ptr %10) #7
  %34 = load ptr, ptr %6, align 8, !tbaa !3
  %35 = load ptr, ptr %7, align 8, !tbaa !15
  %36 = call noundef i32 @_ZN6icu_7712IteratedChar8nextByteEPNS_9InputTextE(ptr noundef nonnull align 4 dereferenceable(14) %34, ptr noundef %35)
  store i32 %36, ptr %10, align 4, !tbaa !26
  %37 = load i32, ptr %10, align 4, !tbaa !26
  %38 = icmp sge i32 %37, 0
  br i1 %38, label %39, label %48

39:                                               ; preds = %33
  %40 = load ptr, ptr %6, align 8, !tbaa !3
  %41 = getelementptr inbounds nuw %"class.icu_77::IteratedChar", ptr %40, i32 0, i32 0
  %42 = load i32, ptr %41, align 4, !tbaa !8
  %43 = shl i32 %42, 8
  %44 = load i32, ptr %10, align 4, !tbaa !26
  %45 = or i32 %43, %44
  %46 = load ptr, ptr %6, align 8, !tbaa !3
  %47 = getelementptr inbounds nuw %"class.icu_77::IteratedChar", ptr %46, i32 0, i32 0
  store i32 %45, ptr %47, align 4, !tbaa !8
  br label %48

48:                                               ; preds = %39, %33
  %49 = load i32, ptr %10, align 4, !tbaa !26
  %50 = icmp slt i32 %49, 64
  br i1 %50, label %57, label %51

51:                                               ; preds = %48
  %52 = load i32, ptr %10, align 4, !tbaa !26
  %53 = icmp eq i32 %52, 127
  br i1 %53, label %57, label %54

54:                                               ; preds = %51
  %55 = load i32, ptr %10, align 4, !tbaa !26
  %56 = icmp eq i32 %55, 255
  br i1 %56, label %57, label %60

57:                                               ; preds = %54, %51, %48
  %58 = load ptr, ptr %6, align 8, !tbaa !3
  %59 = getelementptr inbounds nuw %"class.icu_77::IteratedChar", ptr %58, i32 0, i32 3
  store i8 1, ptr %59, align 4, !tbaa !13
  br label %60

60:                                               ; preds = %57, %54
  store i8 1, ptr %4, align 1
  store i32 1, ptr %9, align 4
  call void @llvm.lifetime.end.p0(i64 4, ptr %10) #7
  br label %61

61:                                               ; preds = %60, %32, %25
  call void @llvm.lifetime.end.p0(i64 4, ptr %8) #7
  %62 = load i8, ptr %4, align 1
  ret i8 %62
}