; Function Attrs: mustprogress nofree norecurse nosync nounwind willreturn memory(read, argmem: readwrite, inaccessiblemem: none) uwtable
define noundef signext range(i8 0, 2) i8 @_ZNK6icu_7717CharsetRecog_big58nextCharEPNS_12IteratedCharEPNS_9InputTextE(ptr nonnull readnone align 8 captures(none) %0, ptr noundef captures(none) initializes((0, 8), (12, 13)) %1, ptr noundef readonly captures(none) %2) unnamed_addr #1 align 2 {
  %4 = getelementptr inbounds nuw i8, ptr %1, i64 8
  %5 = load i32, ptr %4, align 4, !tbaa !9
  %6 = getelementptr inbounds nuw i8, ptr %1, i64 4
  store i32 %5, ptr %6, align 4, !tbaa !8
  %7 = getelementptr inbounds nuw i8, ptr %1, i64 12
  store i8 0, ptr %7, align 4, !tbaa !10
  %8 = getelementptr inbounds nuw i8, ptr %2, i64 48
  %9 = load i32, ptr %8, align 8, !tbaa !12
  %.not.i = icmp slt i32 %5, %9
  br i1 %.not.i, label %_ZN6icu_7712IteratedChar8nextByteEPNS_9InputTextE.exit, label %_ZN6icu_7712IteratedChar8nextByteEPNS_9InputTextE.exit.thread

_ZN6icu_7712IteratedChar8nextByteEPNS_9InputTextE.exit.thread: ; preds = %3
  %10 = getelementptr inbounds nuw i8, ptr %1, i64 13
  store i8 1, ptr %10, align 1, !tbaa !11
  store i32 -1, ptr %1, align 4, !tbaa !3
  br label %32

_ZN6icu_7712IteratedChar8nextByteEPNS_9InputTextE.exit: ; preds = %3
  %11 = getelementptr inbounds nuw i8, ptr %2, i64 40
  %12 = load ptr, ptr %11, align 8, !tbaa !17
  %13 = add nsw i32 %5, 1
  store i32 %13, ptr %4, align 4, !tbaa !9
  %14 = sext i32 %5 to i64
  %15 = getelementptr inbounds i8, ptr %12, i64 %14
  %16 = load i8, ptr %15, align 1, !tbaa !18
  %17 = zext i8 %16 to i32
  store i32 %17, ptr %1, align 4, !tbaa !3
  %or.cond = icmp sgt i8 %16, -2
  br i1 %or.cond, label %32, label %18

18:                                               ; preds = %_ZN6icu_7712IteratedChar8nextByteEPNS_9InputTextE.exit
  %.not.i26 = icmp slt i32 %13, %9
  br i1 %.not.i26, label %20, label %.thread

.thread:                                          ; preds = %18
  %19 = getelementptr inbounds nuw i8, ptr %1, i64 13
  store i8 1, ptr %19, align 1, !tbaa !11
  br label %31

20:                                               ; preds = %18
  %21 = add nsw i32 %5, 2
  store i32 %21, ptr %4, align 4, !tbaa !9
  %22 = sext i32 %13 to i64
  %23 = getelementptr inbounds i8, ptr %12, i64 %22
  %24 = load i8, ptr %23, align 1, !tbaa !18
  %25 = zext i8 %24 to i32
  %26 = shl nuw nsw i32 %17, 8
  %27 = or disjoint i32 %26, %25
  store i32 %27, ptr %1, align 4, !tbaa !3
  %28 = icmp ult i8 %24, 64
  %29 = and i32 %25, 127
  %30 = icmp eq i32 %29, 127
  %or.cond5 = or i1 %28, %30
  br i1 %or.cond5, label %31, label %32

31:                                               ; preds = %.thread, %20
  store i8 1, ptr %7, align 4, !tbaa !10
  br label %32

32:                                               ; preds = %_ZN6icu_7712IteratedChar8nextByteEPNS_9InputTextE.exit.thread, %31, %20, %_ZN6icu_7712IteratedChar8nextByteEPNS_9InputTextE.exit
  %.0 = phi i8 [ 1, %_ZN6icu_7712IteratedChar8nextByteEPNS_9InputTextE.exit ], [ 1, %20 ], [ 1, %31 ], [ 0, %_ZN6icu_7712IteratedChar8nextByteEPNS_9InputTextE.exit.thread ]
  ret i8 %.0
}